Certificate:
    Data:
        Version: 3 (0x2)
        Serial Number: 3 (0x3)
    Signature Algorithm: sha1WithRSAEncryption
        Issuer: CN=CACosoute, ST=VA, C=US/emailAddress=info@cosoute.com, O=Cosoute, OU=IT Department
        Validity
            Not Before: Oct 28 02:33:49 2014 GMT
            Not After : Oct 27 02:33:49 2019 GMT
        Subject: CN=ubuntu, ST=VA, C=US/emailAddress=info@cosoute.com, O=Cosoute, OU=R&D
        Subject Public Key Info:
            Public Key Algorithm: rsaEncryption
                Public-Key: (1024 bit)
                Modulus:
                    00:d1:f6:ab:2d:ab:d7:78:17:fc:e4:a7:7e:5b:13:
                    87:d3:ff:00:8c:27:f3:56:d1:57:15:82:1e:e9:ce:
                    d2:2e:a4:22:2d:1b:8b:fe:71:68:c5:a4:0d:8f:e4:
                    d3:3d:8a:61:b3:c1:de:3a:f6:ef:ee:f6:af:4b:ee:
                    8f:79:b8:a5:8e:a2:41:c7:42:8b:96:5b:b9:c4:ea:
                    59:f7:67:60:85:ba:7d:d4:60:ee:05:e0:9c:02:cd:
                    b6:2c:69:2d:a6:9e:c5:0d:62:be:60:db:5b:61:1e:
                    b8:be:bd:e7:78:6a:29:ef:1e:3e:35:a4:09:34:d1:
                    37:0f:1f:9e:ca:b7:04:e7:a1
                Exponent: 65537 (0x10001)
        X509v3 extensions:
            X509v3 Basic Constraints: 
                CA:FALSE
            X509v3 Key Usage: 
                Digital Signature, Non Repudiation, Key Encipherment
            X509v3 Subject Alternative Name: 
                DNS:tradeshowhell.com, DNS:alt.tradeshowhell.com
    Signature Algorithm: sha1WithRSAEncryption
         26:55:da:c5:57:10:eb:3a:03:c8:e4:f9:86:b9:6e:09:f6:e7:
         2f:fe:33:8f:c2:27:eb:42:e1:b4:3f:cf:64:4d:ed:64:d1:7d:
         c6:a7:29:02:2c:6d:a3:86:a8:1f:e8:76:62:02:2a:ee:41:c5:
         96:02:cc:24:a2:7c:6b:01:62:9c:0f:38:c6:38:47:ad:56:ea:
         17:0c:c9:db:db:17:c3:84:76:99:5a:3d:b1:30:2e:db:fb:41:
         eb:43:03:db:56:a0:a3:33:72:52:ab:01:ff:bc:ff:9b:d2:ad:
         e4:ea:48:74:84:f3:a4:86:b9:cb:6f:c9:29:ad:64:a2:6c:0f:
         a6:e5:a7:4b:58:4c:3a:58:b6:d9:2f:08:5c:6c:76:53:18:3f:
         f5:9f:61:27:94:9d:94:ef:46:d3:15:7b:66:f1:57:e4:53:dd:
         34:d1:de:f0:aa:cd:b7:c3:b1:59:92:7d:b7:77:cb:56:75:bc:
         28:41:57:8e:0e:33:bc:2e:9e:64:12:7b:03:89:a5:31:09:d9:
         9c:6b:83:e0:94:16:32:f8:4d:23:2e:22:64:5c:82:9a:15:a2:
         5a:1c:7e:85:1f:ce:33:13:c3:06:f8:df:9e:0a:96:fc:d4:e4:
         55:12:90:89:28:ab:7a:9e:7a:ce:0c:6b:50:6a:6a:fe:72:55:
         d6:ce:4f:58
-----BEGIN CERTIFICATE-----
MIIDKzCCAhOgAwIBAgIBAzANBgkqhkiG9w0BAQUFADB5MRIwEAYDVQQDEwlDQUNv
c291dGUxCzAJBgNVBAgTAlZBMQswCQYDVQQGEwJVUzEfMB0GCSqGSIb3DQEJARYQ
aW5mb0Bjb3NvdXRlLmNvbTEQMA4GA1UEChMHQ29zb3V0ZTEWMBQGA1UECxMNSVQg
RGVwYXJ0bWVudDAeFw0xNDEwMjgwMjMzNDlaFw0xOTEwMjcwMjMzNDlaMGwxDzAN
BgNVBAMTBnVidW50dTELMAkGA1UECBMCVkExCzAJBgNVBAYTAlVTMR8wHQYJKoZI
hvcNAQkBFhBpbmZvQGNvc291dGUuY29tMRAwDgYDVQQKEwdDb3NvdXRlMQwwCgYD
VQQLFANSJkQwgZ8wDQYJKoZIhvcNAQEBBQADgY0AMIGJAoGBANH2qy2r13gX/OSn
flsTh9P/AIwn81bRVxWCHunO0i6kIi0bi/5xaMWkDY/k0z2KYbPB3jr27+72r0vu
j3m4pY6iQcdCi5ZbucTqWfdnYIW6fdRg7gXgnALNtixpLaaexQ1ivmDbW2EeuL69
53hqKe8ePjWkCTTRNw8fnsq3BOehAgMBAAGjTzBNMAkGA1UdEwQCMAAwCwYDVR0P
BAQDAgXgMDMGA1UdEQQsMCqCEXRyYWRlc2hvd2hlbGwuY29tghVhbHQudHJhZGVz
aG93aGVsbC5jb20wDQYJKoZIhvcNAQEFBQADggEBACZV2sVXEOs6A8jk+Ya5bgn2
5y/+M4/CJ+tC4bQ/z2RN7WTRfcanKQIsbaOGqB/odmICKu5BxZYCzCSifGsBYpwP
OMY4R61W6hcMydvbF8OEdplaPbEwLtv7QetDA9tWoKMzclKrAf+8/5vSreTqSHSE
86SGuctvySmtZKJsD6blp0tYTDpYttkvCFxsdlMYP/WfYSeUnZTvRtMVe2bxV+RT
3TTR3vCqzbfDsVmSfbd3y1Z1vChBV44OM7wunmQSewOJpTEJ2Zxrg+CUFjL4TSMu
ImRcgpoVolocfoUfzjMTwwb4354KlvzU5FUSkIkoq3qees4Ma1Bqav5yVdbOT1g=
-----END CERTIFICATE-----
