Certificate:
    Data:
        Version: 3 (0x2)
        Serial Number: 1 (0x1)
    Signature Algorithm: sha1WithRSAEncryption
        Issuer: CN=CACosoute, ST=VA, C=US/emailAddress=info@cosoute.com, O=Cosoute, OU=IT Department
        Validity
            Not Before: Oct 27 22:05:08 2014 GMT
            Not After : Oct 26 22:05:08 2019 GMT
        Subject: CN=ubuntu, ST=VA, C=US/emailAddress=info@cosoute.com, O=Cosoute, OU=R&D
        Subject Public Key Info:
            Public Key Algorithm: rsaEncryption
                Public-Key: (1024 bit)
                Modulus:
                    00:aa:35:9b:23:71:38:97:8d:f0:57:23:f7:57:5f:
                    d0:b8:df:5d:57:f0:53:f9:0c:d4:45:94:0a:c2:c7:
                    f3:19:5f:d6:d8:28:d2:9a:cf:d7:80:ed:b9:df:06:
                    e9:f0:d3:a1:ad:ec:05:10:c9:db:7b:c8:b5:61:34:
                    62:68:64:90:3b:85:3f:69:2b:5f:97:9a:3d:fd:c6:
                    c3:dd:63:14:78:2d:76:f4:2f:c1:76:ed:11:be:b2:
                    d0:01:77:84:8b:3f:20:ac:58:1d:9b:5a:d0:24:e5:
                    1e:84:a7:6e:74:e6:b0:28:5a:aa:96:f2:f4:83:6c:
                    68:61:8f:28:0b:29:ff:8f:05
                Exponent: 65537 (0x10001)
        X509v3 extensions:
            X509v3 Basic Constraints: 
                CA:FALSE
            X509v3 Key Usage: 
                Digital Signature, Non Repudiation, Key Encipherment
            X509v3 Subject Alternative Name: 
                DNS:tradeshowhell.com, DNS:alt.tradeshowhell.com
    Signature Algorithm: sha1WithRSAEncryption
         0f:3d:94:04:7a:18:e6:1f:8f:9a:8c:e6:6e:5b:5a:39:0f:09:
         a9:a2:01:7f:28:af:80:ed:02:60:2f:71:7a:f3:e5:9a:d9:85:
         09:54:7b:ff:06:19:37:8c:2a:0c:b4:c7:6f:61:cf:6b:69:29:
         59:8b:b9:48:78:5a:b2:b4:49:8e:10:17:71:20:85:fa:0d:4b:
         23:bb:ac:cb:dc:41:73:ee:55:42:80:b8:de:3c:67:a8:8d:27:
         7c:88:94:96:ca:49:1a:5c:3e:94:7e:88:e4:be:47:8a:a2:da:
         c9:7f:6f:ae:77:08:bc:cf:ff:0c:fc:64:55:b7:ca:27:95:53:
         01:e0:11:bb:9c:82:32:0c:66:11:1b:85:69:02:7c:d3:d4:1f:
         bc:c1:14:2b:12:a5:da:43:70:29:de:0a:5c:63:10:2f:42:4f:
         50:1c:b5:72:24:af:da:3a:4e:bf:a4:db:5f:38:c4:c1:6f:ab:
         e2:96:a5:eb:cc:86:7b:a2:ae:14:d5:98:df:29:50:82:a7:4a:
         52:3e:8f:ce:82:08:57:5c:d6:c8:1d:73:17:9b:1b:9a:6a:b6:
         f9:b7:46:c2:16:4f:d7:5a:5f:94:d2:da:ee:08:cc:3b:62:05:
         cc:91:0c:e5:9b:d4:3a:6c:a3:d1:79:29:87:44:f1:87:19:ef:
         af:58:68:34
-----BEGIN CERTIFICATE-----
MIIDKzCCAhOgAwIBAgIBATANBgkqhkiG9w0BAQUFADB5MRIwEAYDVQQDEwlDQUNv
c291dGUxCzAJBgNVBAgTAlZBMQswCQYDVQQGEwJVUzEfMB0GCSqGSIb3DQEJARYQ
aW5mb0Bjb3NvdXRlLmNvbTEQMA4GA1UEChMHQ29zb3V0ZTEWMBQGA1UECxMNSVQg
RGVwYXJ0bWVudDAeFw0xNDEwMjcyMjA1MDhaFw0xOTEwMjYyMjA1MDhaMGwxDzAN
BgNVBAMTBnVidW50dTELMAkGA1UECBMCVkExCzAJBgNVBAYTAlVTMR8wHQYJKoZI
hvcNAQkBFhBpbmZvQGNvc291dGUuY29tMRAwDgYDVQQKEwdDb3NvdXRlMQwwCgYD
VQQLFANSJkQwgZ8wDQYJKoZIhvcNAQEBBQADgY0AMIGJAoGBAKo1myNxOJeN8Fcj
91df0LjfXVfwU/kM1EWUCsLH8xlf1tgo0prP14Dtud8G6fDToa3sBRDJ23vItWE0
YmhkkDuFP2krX5eaPf3Gw91jFHgtdvQvwXbtEb6y0AF3hIs/IKxYHZta0CTlHoSn
bnTmsChaqpby9INsaGGPKAsp/48FAgMBAAGjTzBNMAkGA1UdEwQCMAAwCwYDVR0P
BAQDAgXgMDMGA1UdEQQsMCqCEXRyYWRlc2hvd2hlbGwuY29tghVhbHQudHJhZGVz
aG93aGVsbC5jb20wDQYJKoZIhvcNAQEFBQADggEBAA89lAR6GOYfj5qM5m5bWjkP
CamiAX8or4DtAmAvcXrz5ZrZhQlUe/8GGTeMKgy0x29hz2tpKVmLuUh4WrK0SY4Q
F3EghfoNSyO7rMvcQXPuVUKAuN48Z6iNJ3yIlJbKSRpcPpR+iOS+R4qi2sl/b653
CLzP/wz8ZFW3yieVUwHgEbucgjIMZhEbhWkCfNPUH7zBFCsSpdpDcCneClxjEC9C
T1ActXIkr9o6Tr+k2184xMFvq+KWpevMhnuirhTVmN8pUIKnSlI+j86CCFdc1sgd
cxebG5pqtvm3RsIWT9daX5TS2u4IzDtiBcyRDOWb1Dpso9F5KYdE8YcZ769YaDQ=
-----END CERTIFICATE-----
